target datalayout = "e-m:e-p270:32:32-p271:32:32-p272:64:64-i64:64-i128:128-f80:128-n8:16:32:64-S128"
target triple = "x86_64-pc-linux-gnu"

@_ZN15DirectivesStack6_depthE = external global i32, align 4
@CompilerDirectivesLimit = external global i32, align 4
@.str.18 = private unnamed_addr constant [62 x i8] c"Could not add %i more directives. Currently %i/%i directives.\00", align 1

; Function Attrs: mustprogress nounwind uwtable
define hidden noundef zeroext i1 @_ZN15DirectivesStack14check_capacityEiP12outputStream(i32 noundef %0, ptr noundef %1) #1 align 2 {
  %3 = alloca i1, align 1
  %4 = alloca i32, align 4
  %5 = alloca ptr, align 8
  store i32 %0, ptr %4, align 4
  store ptr %1, ptr %5, align 8
  %6 = load i32, ptr %4, align 4
  %7 = load i32, ptr @_ZN15DirectivesStack6_depthE, align 4
  %8 = add nsw i32 %6, %7
  %9 = load i32, ptr @CompilerDirectivesLimit, align 4
  %10 = icmp sgt i32 %8, %9
  br i1 %10, label %11, label %16

11:                                               ; preds = %2
  %12 = load ptr, ptr %5, align 8
  %13 = load i32, ptr %4, align 4
  %14 = load i32, ptr @_ZN15DirectivesStack6_depthE, align 4
  %15 = load i32, ptr @CompilerDirectivesLimit, align 4
  call void (ptr, ptr, ...) @_ZN12outputStream8print_crEPKcz(ptr noundef nonnull align 8 dereferenceable(56) %12, ptr noundef @.str.18, i32 noundef %13, i32 noundef %14, i32 noundef %15)
  store i1 false, ptr %3, align 1
  br label %17

16:                                               ; preds = %2
  store i1 true, ptr %3, align 1
  br label %17

17:                                               ; preds = %16, %11
  %18 = load i1, ptr %3, align 1
  ret i1 %18
}