; Function Attrs: mustprogress nounwind uwtable
define hidden noundef zeroext i1 @_ZN15DirectivesStack14check_capacityEiP12outputStream(i32 noundef %0, ptr noundef %1) local_unnamed_addr #0 align 2 {
  %3 = load i32, ptr @_ZN15DirectivesStack6_depthE, align 4
  %4 = add nsw i32 %3, %0
  %5 = load i32, ptr @CompilerDirectivesLimit, align 4
  %6 = icmp sle i32 %4, %5
  br i1 %6, label %8, label %7

7:                                                ; preds = %2
  tail call void (ptr, ptr, ...) @_ZN12outputStream8print_crEPKcz(ptr noundef nonnull align 8 dereferenceable(56) %1, ptr noundef nonnull @.str.18, i32 noundef %0, i32 noundef %3, i32 noundef %5) #14
  br label %8

8:                                                ; preds = %2, %7
  ret i1 %6
}